target datalayout = "e-m:e-p270:32:32-p271:32:32-p272:64:64-i64:64-i128:128-f80:128-n8:16:32:64-S128"
target triple = "x86_64-pc-linux-gnu"

%struct.sparse_array_st = type { i32, i64, i64, ptr }

@.str = private unnamed_addr constant [33 x i8] c"../openssl/crypto/sparse_array.c\00", align 1

; Function Attrs: inlinehint nounwind uwtable
define internal ptr @alloc_node() #3 {
  %1 = call noalias ptr @CRYPTO_zalloc(i64 noundef 128, ptr noundef @.str, i32 noundef 176)
  ret ptr %1
}

; Function Attrs: nounwind uwtable
define i32 @ossl_sa_set(ptr noundef %0, i64 noundef %1, ptr noundef %2) #0 {
  %4 = alloca i32, align 4
  %5 = alloca ptr, align 8
  %6 = alloca i64, align 8
  %7 = alloca ptr, align 8
  %8 = alloca i32, align 4
  %9 = alloca i32, align 4
  %10 = alloca i64, align 8
  %11 = alloca ptr, align 8
  %12 = alloca i32, align 4
  store ptr %0, ptr %5, align 8, !tbaa !3
  store i64 %1, ptr %6, align 8, !tbaa !9
  store ptr %2, ptr %7, align 8, !tbaa !8
  call void @llvm.lifetime.start.p0(i64 4, ptr %8) #4
  call void @llvm.lifetime.start.p0(i64 4, ptr %9) #4
  store i32 1, ptr %9, align 4, !tbaa !11
  call void @llvm.lifetime.start.p0(i64 8, ptr %10) #4
  %13 = load i64, ptr %6, align 8, !tbaa !9
  store i64 %13, ptr %10, align 8, !tbaa !9
  call void @llvm.lifetime.start.p0(i64 8, ptr %11) #4
  %14 = load ptr, ptr %5, align 8, !tbaa !3
  %15 = icmp eq ptr %14, null
  br i1 %15, label %16, label %17

16:                                               ; preds = %3
  store i32 0, ptr %4, align 4
  store i32 1, ptr %12, align 4
  br label %140

17:                                               ; preds = %3
  store i32 1, ptr %9, align 4, !tbaa !11
  br label %18

18:                                               ; preds = %27, %17
  %19 = load i32, ptr %9, align 4, !tbaa !11
  %20 = icmp slt i32 %19, 16
  br i1 %20, label %21, label %30

21:                                               ; preds = %18
  %22 = load i64, ptr %10, align 8, !tbaa !9
  %23 = lshr i64 %22, 4
  store i64 %23, ptr %10, align 8, !tbaa !9
  %24 = icmp eq i64 %23, 0
  br i1 %24, label %25, label %26

25:                                               ; preds = %21
  br label %30

26:                                               ; preds = %21
  br label %27

27:                                               ; preds = %26
  %28 = load i32, ptr %9, align 4, !tbaa !11
  %29 = add nsw i32 %28, 1
  store i32 %29, ptr %9, align 4, !tbaa !11
  br label %18, !llvm.loop !23

30:                                               ; preds = %25, %18
  br label %31

31:                                               ; preds = %51, %30
  %32 = load ptr, ptr %5, align 8, !tbaa !3
  %33 = getelementptr inbounds nuw %struct.sparse_array_st, ptr %32, i32 0, i32 0
  %34 = load i32, ptr %33, align 8, !tbaa !15
  %35 = load i32, ptr %9, align 4, !tbaa !11
  %36 = icmp slt i32 %34, %35
  br i1 %36, label %37, label %56

37:                                               ; preds = %31
  %38 = call ptr @alloc_node()
  store ptr %38, ptr %11, align 8, !tbaa !8
  %39 = load ptr, ptr %11, align 8, !tbaa !8
  %40 = icmp eq ptr %39, null
  br i1 %40, label %41, label %42

41:                                               ; preds = %37
  store i32 0, ptr %4, align 4
  store i32 1, ptr %12, align 4
  br label %140

42:                                               ; preds = %37
  %43 = load ptr, ptr %5, align 8, !tbaa !3
  %44 = getelementptr inbounds nuw %struct.sparse_array_st, ptr %43, i32 0, i32 3
  %45 = load ptr, ptr %44, align 8, !tbaa !13
  %46 = load ptr, ptr %11, align 8, !tbaa !8
  %47 = getelementptr inbounds ptr, ptr %46, i64 0
  store ptr %45, ptr %47, align 8, !tbaa !8
  %48 = load ptr, ptr %11, align 8, !tbaa !8
  %49 = load ptr, ptr %5, align 8, !tbaa !3
  %50 = getelementptr inbounds nuw %struct.sparse_array_st, ptr %49, i32 0, i32 3
  store ptr %48, ptr %50, align 8, !tbaa !13
  br label %51

51:                                               ; preds = %42
  %52 = load ptr, ptr %5, align 8, !tbaa !3
  %53 = getelementptr inbounds nuw %struct.sparse_array_st, ptr %52, i32 0, i32 0
  %54 = load i32, ptr %53, align 8, !tbaa !15
  %55 = add nsw i32 %54, 1
  store i32 %55, ptr %53, align 8, !tbaa !15
  br label %31, !llvm.loop !24

56:                                               ; preds = %31
  %57 = load ptr, ptr %5, align 8, !tbaa !3
  %58 = getelementptr inbounds nuw %struct.sparse_array_st, ptr %57, i32 0, i32 1
  %59 = load i64, ptr %58, align 8, !tbaa !21
  %60 = load i64, ptr %6, align 8, !tbaa !9
  %61 = icmp ult i64 %59, %60
  br i1 %61, label %62, label %66

62:                                               ; preds = %56
  %63 = load i64, ptr %6, align 8, !tbaa !9
  %64 = load ptr, ptr %5, align 8, !tbaa !3
  %65 = getelementptr inbounds nuw %struct.sparse_array_st, ptr %64, i32 0, i32 1
  store i64 %63, ptr %65, align 8, !tbaa !21
  br label %66

66:                                               ; preds = %62, %56
  %67 = load ptr, ptr %5, align 8, !tbaa !3
  %68 = getelementptr inbounds nuw %struct.sparse_array_st, ptr %67, i32 0, i32 3
  %69 = load ptr, ptr %68, align 8, !tbaa !13
  store ptr %69, ptr %11, align 8, !tbaa !8
  %70 = load ptr, ptr %5, align 8, !tbaa !3
  %71 = getelementptr inbounds nuw %struct.sparse_array_st, ptr %70, i32 0, i32 0
  %72 = load i32, ptr %71, align 8, !tbaa !15
  %73 = sub nsw i32 %72, 1
  store i32 %73, ptr %9, align 4, !tbaa !11
  br label %74

74:                                               ; preds = %105, %66
  %75 = load i32, ptr %9, align 4, !tbaa !11
  %76 = icmp sgt i32 %75, 0
  br i1 %76, label %77, label %108

77:                                               ; preds = %74
  %78 = load i64, ptr %6, align 8, !tbaa !9
  %79 = load i32, ptr %9, align 4, !tbaa !11
  %80 = mul nsw i32 4, %79
  %81 = zext i32 %80 to i64
  %82 = lshr i64 %78, %81
  %83 = and i64 %82, 15
  %84 = trunc i64 %83 to i32
  store i32 %84, ptr %8, align 4, !tbaa !11
  %85 = load ptr, ptr %11, align 8, !tbaa !8
  %86 = load i32, ptr %8, align 4, !tbaa !11
  %87 = sext i32 %86 to i64
  %88 = getelementptr inbounds ptr, ptr %85, i64 %87
  %89 = load ptr, ptr %88, align 8, !tbaa !8
  %90 = icmp eq ptr %89, null
  br i1 %90, label %91, label %99

91:                                               ; preds = %77
  %92 = call ptr @alloc_node()
  %93 = load ptr, ptr %11, align 8, !tbaa !8
  %94 = load i32, ptr %8, align 4, !tbaa !11
  %95 = sext i32 %94 to i64
  %96 = getelementptr inbounds ptr, ptr %93, i64 %95
  store ptr %92, ptr %96, align 8, !tbaa !8
  %97 = icmp eq ptr %92, null
  br i1 %97, label %98, label %99

98:                                               ; preds = %91
  store i32 0, ptr %4, align 4
  store i32 1, ptr %12, align 4
  br label %140

99:                                               ; preds = %91, %77
  %100 = load ptr, ptr %11, align 8, !tbaa !8
  %101 = load i32, ptr %8, align 4, !tbaa !11
  %102 = sext i32 %101 to i64
  %103 = getelementptr inbounds ptr, ptr %100, i64 %102
  %104 = load ptr, ptr %103, align 8, !tbaa !8
  store ptr %104, ptr %11, align 8, !tbaa !8
  br label %105

105:                                              ; preds = %99
  %106 = load i32, ptr %9, align 4, !tbaa !11
  %107 = add nsw i32 %106, -1
  store i32 %107, ptr %9, align 4, !tbaa !11
  br label %74, !llvm.loop !25

108:                                              ; preds = %74
  %109 = load i64, ptr %6, align 8, !tbaa !9
  %110 = and i64 %109, 15
  %111 = load ptr, ptr %11, align 8, !tbaa !8
  %112 = getelementptr inbounds nuw ptr, ptr %111, i64 %110
  store ptr %112, ptr %11, align 8, !tbaa !8
  %113 = load ptr, ptr %7, align 8, !tbaa !8
  %114 = icmp eq ptr %113, null
  br i1 %114, label %115, label %124

115:                                              ; preds = %108
  %116 = load ptr, ptr %11, align 8, !tbaa !8
  %117 = load ptr, ptr %116, align 8, !tbaa !8
  %118 = icmp ne ptr %117, null
  br i1 %118, label %119, label %124

119:                                              ; preds = %115
  %120 = load ptr, ptr %5, align 8, !tbaa !3
  %121 = getelementptr inbounds nuw %struct.sparse_array_st, ptr %120, i32 0, i32 2
  %122 = load i64, ptr %121, align 8, !tbaa !20
  %123 = add i64 %122, -1
  store i64 %123, ptr %121, align 8, !tbaa !20
  br label %137

124:                                              ; preds = %115, %108
  %125 = load ptr, ptr %7, align 8, !tbaa !8
  %126 = icmp ne ptr %125, null
  br i1 %126, label %127, label %136

127:                                              ; preds = %124
  %128 = load ptr, ptr %11, align 8, !tbaa !8
  %129 = load ptr, ptr %128, align 8, !tbaa !8
  %130 = icmp eq ptr %129, null
  br i1 %130, label %131, label %136

131:                                              ; preds = %127
  %132 = load ptr, ptr %5, align 8, !tbaa !3
  %133 = getelementptr inbounds nuw %struct.sparse_array_st, ptr %132, i32 0, i32 2
  %134 = load i64, ptr %133, align 8, !tbaa !20
  %135 = add i64 %134, 1
  store i64 %135, ptr %133, align 8, !tbaa !20
  br label %136

136:                                              ; preds = %131, %127, %124
  br label %137

137:                                              ; preds = %136, %119
  %138 = load ptr, ptr %7, align 8, !tbaa !8
  %139 = load ptr, ptr %11, align 8, !tbaa !8
  store ptr %138, ptr %139, align 8, !tbaa !8
  store i32 1, ptr %4, align 4
  store i32 1, ptr %12, align 4
  br label %140

140:                                              ; preds = %137, %98, %41, %16
  call void @llvm.lifetime.end.p0(i64 8, ptr %11) #4
  call void @llvm.lifetime.end.p0(i64 8, ptr %10) #4
  call void @llvm.lifetime.end.p0(i64 4, ptr %9) #4
  call void @llvm.lifetime.end.p0(i64 4, ptr %8) #4
  %141 = load i32, ptr %4, align 4
  ret i32 %141
}