; Function Attrs: nounwind uwtable
define range(i32 0, 2) i32 @ossl_sa_set(ptr noundef captures(address_is_null) %0, i64 noundef %1, ptr noundef %2) local_unnamed_addr #0 {
  %4 = icmp eq ptr %0, null
  br i1 %4, label %.loopexit, label %.preheader48

.preheader48:                                     ; preds = %3
  %5 = icmp ult i64 %1, 16
  br i1 %5, label %.preheader, label %.lr.ph

.preheader:                                       ; preds = %.lr.ph, %.preheader48
  %.040.lcssa = phi i32 [ 1, %.preheader48 ], [ %10, %.lr.ph ]
  %6 = load i32, ptr %0, align 8, !tbaa !12
  %7 = icmp slt i32 %6, %.040.lcssa
  br i1 %7, label %.lr.ph53, label %._crit_edge

.lr.ph53:                                         ; preds = %.preheader
  %8 = getelementptr inbounds nuw i8, ptr %0, i64 24
  br label %13

.lr.ph:                                           ; preds = %.preheader48, %.lr.ph
  %.03952 = phi i64 [ %9, %.lr.ph ], [ %1, %.preheader48 ]
  %.04051 = phi i32 [ %10, %.lr.ph ], [ 1, %.preheader48 ]
  %9 = lshr i64 %.03952, 4
  %10 = add nuw nsw i32 %.04051, 1
  %11 = icmp samesign ugt i32 %.04051, 14
  %12 = icmp ult i64 %.03952, 256
  %or.cond = select i1 %11, i1 true, i1 %12
  br i1 %or.cond, label %.preheader, label %.lr.ph, !llvm.loop !18

13:                                               ; preds = %.lr.ph53, %16
  %14 = tail call noalias ptr @CRYPTO_zalloc(i64 noundef 128, ptr noundef nonnull @.str, i32 noundef 176) #5
  %15 = icmp eq ptr %14, null
  br i1 %15, label %.loopexit, label %16

16:                                               ; preds = %13
  %17 = load ptr, ptr %8, align 8, !tbaa !7
  store ptr %17, ptr %14, align 8, !tbaa !11
  store ptr %14, ptr %8, align 8, !tbaa !7
  %18 = load i32, ptr %0, align 8, !tbaa !12
  %19 = add nsw i32 %18, 1
  store i32 %19, ptr %0, align 8, !tbaa !12
  %20 = icmp slt i32 %19, %.040.lcssa
  br i1 %20, label %13, label %._crit_edge, !llvm.loop !19

._crit_edge:                                      ; preds = %16, %.preheader
  %.lcssa = phi i32 [ %6, %.preheader ], [ %19, %16 ]
  %21 = getelementptr inbounds nuw i8, ptr %0, i64 8
  %22 = load i64, ptr %21, align 8, !tbaa !16
  %23 = icmp ult i64 %22, %1
  br i1 %23, label %24, label %25

24:                                               ; preds = %._crit_edge
  store i64 %1, ptr %21, align 8, !tbaa !16
  br label %25

25:                                               ; preds = %24, %._crit_edge
  %26 = getelementptr inbounds nuw i8, ptr %0, i64 24
  %.055 = load ptr, ptr %26, align 8, !tbaa !11
  %27 = icmp sgt i32 %.lcssa, 1
  br i1 %27, label %.lr.ph60.preheader, label %._crit_edge61

.lr.ph60.preheader:                               ; preds = %25
  %28 = zext nneg i32 %.lcssa to i64
  br label %.lr.ph60

.lr.ph60:                                         ; preds = %.lr.ph60.preheader, %38
  %indvars.iv = phi i64 [ %28, %.lr.ph60.preheader ], [ %indvars.iv.next, %38 ]
  %.057 = phi ptr [ %.055, %.lr.ph60.preheader ], [ %.0, %38 ]
  %indvars.iv.next = add nsw i64 %indvars.iv, -1
  %29 = shl nsw i64 %indvars.iv.next, 2
  %30 = lshr i64 %1, %29
  %31 = and i64 %30, 15
  %32 = getelementptr inbounds nuw ptr, ptr %.057, i64 %31
  %33 = load ptr, ptr %32, align 8, !tbaa !11
  %34 = icmp eq ptr %33, null
  br i1 %34, label %35, label %38

35:                                               ; preds = %.lr.ph60
  %36 = tail call noalias ptr @CRYPTO_zalloc(i64 noundef 128, ptr noundef nonnull @.str, i32 noundef 176) #5
  store ptr %36, ptr %32, align 8, !tbaa !11
  %37 = icmp eq ptr %36, null
  br i1 %37, label %.loopexit, label %38

38:                                               ; preds = %35, %.lr.ph60
  %.0 = phi ptr [ %36, %35 ], [ %33, %.lr.ph60 ]
  %39 = icmp samesign ugt i64 %indvars.iv, 2
  br i1 %39, label %.lr.ph60, label %._crit_edge61, !llvm.loop !20

._crit_edge61:                                    ; preds = %38, %25
  %.0.lcssa = phi ptr [ %.055, %25 ], [ %.0, %38 ]
  %40 = and i64 %1, 15
  %41 = getelementptr inbounds nuw ptr, ptr %.0.lcssa, i64 %40
  %cond = icmp eq ptr %2, null
  %42 = load ptr, ptr %41, align 8, !tbaa !11
  %.not = icmp eq ptr %42, null
  br i1 %cond, label %43, label %44

43:                                               ; preds = %._crit_edge61
  br i1 %.not, label %48, label %.sink.split

44:                                               ; preds = %._crit_edge61
  br i1 %.not, label %.sink.split, label %48

.sink.split:                                      ; preds = %44, %43
  %.sink75 = phi i64 [ -1, %43 ], [ 1, %44 ]
  %45 = getelementptr inbounds nuw i8, ptr %0, i64 16
  %46 = load i64, ptr %45, align 8, !tbaa !15
  %47 = add i64 %46, %.sink75
  store i64 %47, ptr %45, align 8, !tbaa !15
  br label %48

48:                                               ; preds = %.sink.split, %43, %44
  store ptr %2, ptr %41, align 8, !tbaa !11
  br label %.loopexit

.loopexit:                                        ; preds = %13, %35, %3, %48
  %.041 = phi i32 [ 1, %48 ], [ 0, %3 ], [ 0, %35 ], [ 0, %13 ]
  ret i32 %.041
}